target datalayout = "e-m:e-p270:32:32-p271:32:32-p272:64:64-i64:64-i128:128-f80:128-n8:16:32:64-S128"
target triple = "x86_64-pc-linux-gnu"

%struct.Emb_Man_t_ = type { ptr, ptr, ptr, i32, i32, i32, ptr, i32, i32, ptr, i32, i32, ptr, ptr, ptr, ptr }

; Function Attrs: nounwind uwtable
define ptr @Emb_ManMatrAlloc(i32 noundef %0) #0 {
  %2 = alloca i32, align 4
  %3 = alloca i32, align 4
  %4 = alloca ptr, align 8
  store i32 %0, ptr %2, align 4, !tbaa !12
  call void @llvm.lifetime.start.p0(i64 4, ptr %3) #12
  call void @llvm.lifetime.start.p0(i64 8, ptr %4) #12
  %5 = load i32, ptr %2, align 4, !tbaa !12
  %6 = sext i32 %5 to i64
  %7 = mul i64 8, %6
  %8 = load i32, ptr %2, align 4, !tbaa !12
  %9 = sext i32 %8 to i64
  %10 = mul i64 4, %9
  %11 = load i32, ptr %2, align 4, !tbaa !12
  %12 = sext i32 %11 to i64
  %13 = mul i64 %10, %12
  %14 = add i64 %7, %13
  %15 = mul i64 1, %14
  %16 = call noalias ptr @malloc(i64 noundef %15) #14
  store ptr %16, ptr %4, align 8, !tbaa !122
  %17 = load ptr, ptr %4, align 8, !tbaa !122
  %18 = load i32, ptr %2, align 4, !tbaa !12
  %19 = sext i32 %18 to i64
  %20 = getelementptr inbounds ptr, ptr %17, i64 %19
  %21 = load ptr, ptr %4, align 8, !tbaa !122
  %22 = getelementptr inbounds ptr, ptr %21, i64 0
  store ptr %20, ptr %22, align 8, !tbaa !107
  store i32 1, ptr %3, align 4, !tbaa !12
  br label %23

23:                                               ; preds = %41, %1
  %24 = load i32, ptr %3, align 4, !tbaa !12
  %25 = load i32, ptr %2, align 4, !tbaa !12
  %26 = icmp slt i32 %24, %25
  br i1 %26, label %27, label %44

27:                                               ; preds = %23
  %28 = load ptr, ptr %4, align 8, !tbaa !122
  %29 = load i32, ptr %3, align 4, !tbaa !12
  %30 = sub nsw i32 %29, 1
  %31 = sext i32 %30 to i64
  %32 = getelementptr inbounds ptr, ptr %28, i64 %31
  %33 = load ptr, ptr %32, align 8, !tbaa !107
  %34 = load i32, ptr %2, align 4, !tbaa !12
  %35 = sext i32 %34 to i64
  %36 = getelementptr inbounds float, ptr %33, i64 %35
  %37 = load ptr, ptr %4, align 8, !tbaa !122
  %38 = load i32, ptr %3, align 4, !tbaa !12
  %39 = sext i32 %38 to i64
  %40 = getelementptr inbounds ptr, ptr %37, i64 %39
  store ptr %36, ptr %40, align 8, !tbaa !107
  br label %41

41:                                               ; preds = %27
  %42 = load i32, ptr %3, align 4, !tbaa !12
  %43 = add nsw i32 %42, 1
  store i32 %43, ptr %3, align 4, !tbaa !12
  br label %23, !llvm.loop !123

44:                                               ; preds = %23
  %45 = load ptr, ptr %4, align 8, !tbaa !122
  call void @llvm.lifetime.end.p0(i64 8, ptr %4) #12
  call void @llvm.lifetime.end.p0(i64 4, ptr %3) #12
  ret ptr %45
}

; Function Attrs: inlinehint nounwind uwtable
define internal ptr @Emb_ManVec(ptr noundef %0, i32 noundef %1) #4 {
  %3 = alloca ptr, align 8
  %4 = alloca i32, align 4
  store ptr %0, ptr %3, align 8, !tbaa !15
  store i32 %1, ptr %4, align 4, !tbaa !12
  %5 = load ptr, ptr %3, align 8, !tbaa !15
  %6 = getelementptr inbounds nuw %struct.Emb_Man_t_, ptr %5, i32 0, i32 9
  %7 = load ptr, ptr %6, align 8, !tbaa !87
  %8 = load i32, ptr %4, align 4, !tbaa !12
  %9 = load ptr, ptr %3, align 8, !tbaa !15
  %10 = getelementptr inbounds nuw %struct.Emb_Man_t_, ptr %9, i32 0, i32 3
  %11 = load i32, ptr %10, align 8, !tbaa !32
  %12 = mul nsw i32 %8, %11
  %13 = sext i32 %12 to i64
  %14 = getelementptr inbounds float, ptr %7, i64 %13
  ret ptr %14
}

; Function Attrs: nounwind uwtable
define void @Emb_ManComputeCovariance(ptr noundef %0, i32 noundef %1) #0 {
  %3 = alloca ptr, align 8
  %4 = alloca i32, align 4
  %5 = alloca ptr, align 8
  %6 = alloca ptr, align 8
  %7 = alloca double, align 8
  %8 = alloca ptr, align 8
  %9 = alloca i32, align 4
  %10 = alloca i32, align 4
  %11 = alloca i32, align 4
  %12 = alloca i32, align 4
  store ptr %0, ptr %3, align 8, !tbaa !15
  store i32 %1, ptr %4, align 4, !tbaa !12
  call void @llvm.lifetime.start.p0(i64 8, ptr %5) #12
  call void @llvm.lifetime.start.p0(i64 8, ptr %6) #12
  call void @llvm.lifetime.start.p0(i64 8, ptr %7) #12
  call void @llvm.lifetime.start.p0(i64 8, ptr %8) #12
  call void @llvm.lifetime.start.p0(i64 4, ptr %9) #12
  call void @llvm.lifetime.start.p0(i64 4, ptr %10) #12
  call void @llvm.lifetime.start.p0(i64 4, ptr %11) #12
  call void @llvm.lifetime.start.p0(i64 4, ptr %12) #12
  store i32 0, ptr %9, align 4, !tbaa !12
  br label %13

13:                                               ; preds = %87, %2
  %14 = load i32, ptr %9, align 4, !tbaa !12
  %15 = load i32, ptr %4, align 4, !tbaa !12
  %16 = icmp slt i32 %14, %15
  br i1 %16, label %17, label %90

17:                                               ; preds = %13
  store double 0.000000e+00, ptr %7, align 8, !tbaa !124
  %18 = load ptr, ptr %3, align 8, !tbaa !15
  %19 = load i32, ptr %9, align 4, !tbaa !12
  %20 = call ptr @Emb_ManVec(ptr noundef %18, i32 noundef %19)
  store ptr %20, ptr %5, align 8, !tbaa !107
  store i32 0, ptr %12, align 4, !tbaa !12
  br label %21

21:                                               ; preds = %44, %17
  %22 = load i32, ptr %12, align 4, !tbaa !12
  %23 = load ptr, ptr %3, align 8, !tbaa !15
  %24 = getelementptr inbounds nuw %struct.Emb_Man_t_, ptr %23, i32 0, i32 3
  %25 = load i32, ptr %24, align 8, !tbaa !32
  %26 = icmp slt i32 %22, %25
  br i1 %26, label %27, label %47

27:                                               ; preds = %21
  %28 = load ptr, ptr %5, align 8, !tbaa !107
  %29 = load i32, ptr %12, align 4, !tbaa !12
  %30 = sext i32 %29 to i64
  %31 = getelementptr inbounds float, ptr %28, i64 %30
  %32 = load float, ptr %31, align 4, !tbaa !110
  %33 = fcmp olt float %32, 1.000000e+09
  br i1 %33, label %34, label %43

34:                                               ; preds = %27
  %35 = load ptr, ptr %5, align 8, !tbaa !107
  %36 = load i32, ptr %12, align 4, !tbaa !12
  %37 = sext i32 %36 to i64
  %38 = getelementptr inbounds float, ptr %35, i64 %37
  %39 = load float, ptr %38, align 4, !tbaa !110
  %40 = fpext float %39 to double
  %41 = load double, ptr %7, align 8, !tbaa !124
  %42 = fadd double %41, %40
  store double %42, ptr %7, align 8, !tbaa !124
  br label %43

43:                                               ; preds = %34, %27
  br label %44

44:                                               ; preds = %43
  %45 = load i32, ptr %12, align 4, !tbaa !12
  %46 = add nsw i32 %45, 1
  store i32 %46, ptr %12, align 4, !tbaa !12
  br label %21, !llvm.loop !126

47:                                               ; preds = %21
  %48 = load ptr, ptr %3, align 8, !tbaa !15
  %49 = getelementptr inbounds nuw %struct.Emb_Man_t_, ptr %48, i32 0, i32 10
  %50 = load i32, ptr %49, align 8, !tbaa !109
  %51 = sitofp i32 %50 to double
  %52 = load double, ptr %7, align 8, !tbaa !124
  %53 = fdiv double %52, %51
  store double %53, ptr %7, align 8, !tbaa !124
  store i32 0, ptr %12, align 4, !tbaa !12
  br label %54

54:                                               ; preds = %83, %47
  %55 = load i32, ptr %12, align 4, !tbaa !12
  %56 = load ptr, ptr %3, align 8, !tbaa !15
  %57 = getelementptr inbounds nuw %struct.Emb_Man_t_, ptr %56, i32 0, i32 3
  %58 = load i32, ptr %57, align 8, !tbaa !32
  %59 = icmp slt i32 %55, %58
  br i1 %59, label %60, label %86

60:                                               ; preds = %54
  %61 = load ptr, ptr %5, align 8, !tbaa !107
  %62 = load i32, ptr %12, align 4, !tbaa !12
  %63 = sext i32 %62 to i64
  %64 = getelementptr inbounds float, ptr %61, i64 %63
  %65 = load float, ptr %64, align 4, !tbaa !110
  %66 = fcmp olt float %65, 1.000000e+09
  br i1 %66, label %67, label %77

67:                                               ; preds = %60
  %68 = load double, ptr %7, align 8, !tbaa !124
  %69 = load ptr, ptr %5, align 8, !tbaa !107
  %70 = load i32, ptr %12, align 4, !tbaa !12
  %71 = sext i32 %70 to i64
  %72 = getelementptr inbounds float, ptr %69, i64 %71
  %73 = load float, ptr %72, align 4, !tbaa !110
  %74 = fpext float %73 to double
  %75 = fsub double %74, %68
  %76 = fptrunc double %75 to float
  store float %76, ptr %72, align 4, !tbaa !110
  br label %82

77:                                               ; preds = %60
  %78 = load ptr, ptr %5, align 8, !tbaa !107
  %79 = load i32, ptr %12, align 4, !tbaa !12
  %80 = sext i32 %79 to i64
  %81 = getelementptr inbounds float, ptr %78, i64 %80
  store float 0.000000e+00, ptr %81, align 4, !tbaa !110
  br label %82

82:                                               ; preds = %77, %67
  br label %83

83:                                               ; preds = %82
  %84 = load i32, ptr %12, align 4, !tbaa !12
  %85 = add nsw i32 %84, 1
  store i32 %85, ptr %12, align 4, !tbaa !12
  br label %54, !llvm.loop !127

86:                                               ; preds = %54
  br label %87

87:                                               ; preds = %86
  %88 = load i32, ptr %9, align 4, !tbaa !12
  %89 = add nsw i32 %88, 1
  store i32 %89, ptr %9, align 4, !tbaa !12
  br label %13, !llvm.loop !128

90:                                               ; preds = %13
  %91 = load i32, ptr %4, align 4, !tbaa !12
  %92 = call ptr @Emb_ManMatrAlloc(i32 noundef %91)
  %93 = load ptr, ptr %3, align 8, !tbaa !15
  %94 = getelementptr inbounds nuw %struct.Emb_Man_t_, ptr %93, i32 0, i32 12
  store ptr %92, ptr %94, align 8, !tbaa !89
  %95 = load i32, ptr %4, align 4, !tbaa !12
  %96 = call ptr @Emb_ManMatrAlloc(i32 noundef %95)
  %97 = load ptr, ptr %3, align 8, !tbaa !15
  %98 = getelementptr inbounds nuw %struct.Emb_Man_t_, ptr %97, i32 0, i32 13
  store ptr %96, ptr %98, align 8, !tbaa !90
  store i32 0, ptr %10, align 4, !tbaa !12
  br label %99

99:                                               ; preds = %157, %90
  %100 = load i32, ptr %10, align 4, !tbaa !12
  %101 = load i32, ptr %4, align 4, !tbaa !12
  %102 = icmp slt i32 %100, %101
  br i1 %102, label %103, label %160

103:                                              ; preds = %99
  %104 = load ptr, ptr %3, align 8, !tbaa !15
  %105 = load i32, ptr %10, align 4, !tbaa !12
  %106 = call ptr @Emb_ManVec(ptr noundef %104, i32 noundef %105)
  store ptr %106, ptr %5, align 8, !tbaa !107
  %107 = load ptr, ptr %3, align 8, !tbaa !15
  %108 = getelementptr inbounds nuw %struct.Emb_Man_t_, ptr %107, i32 0, i32 12
  %109 = load ptr, ptr %108, align 8, !tbaa !89
  %110 = load i32, ptr %10, align 4, !tbaa !12
  %111 = sext i32 %110 to i64
  %112 = getelementptr inbounds ptr, ptr %109, i64 %111
  %113 = load ptr, ptr %112, align 8, !tbaa !107
  store ptr %113, ptr %8, align 8, !tbaa !107
  store i32 0, ptr %11, align 4, !tbaa !12
  br label %114

114:                                              ; preds = %153, %103
  %115 = load i32, ptr %11, align 4, !tbaa !12
  %116 = load i32, ptr %4, align 4, !tbaa !12
  %117 = icmp slt i32 %115, %116
  br i1 %117, label %118, label %156

118:                                              ; preds = %114
  %119 = load ptr, ptr %3, align 8, !tbaa !15
  %120 = load i32, ptr %11, align 4, !tbaa !12
  %121 = call ptr @Emb_ManVec(ptr noundef %119, i32 noundef %120)
  store ptr %121, ptr %6, align 8, !tbaa !107
  %122 = load ptr, ptr %8, align 8, !tbaa !107
  %123 = load i32, ptr %11, align 4, !tbaa !12
  %124 = sext i32 %123 to i64
  %125 = getelementptr inbounds float, ptr %122, i64 %124
  store float 0.000000e+00, ptr %125, align 4, !tbaa !110
  store i32 0, ptr %12, align 4, !tbaa !12
  br label %126

126:                                              ; preds = %149, %118
  %127 = load i32, ptr %12, align 4, !tbaa !12
  %128 = load ptr, ptr %3, align 8, !tbaa !15
  %129 = getelementptr inbounds nuw %struct.Emb_Man_t_, ptr %128, i32 0, i32 3
  %130 = load i32, ptr %129, align 8, !tbaa !32
  %131 = icmp slt i32 %127, %130
  br i1 %131, label %132, label %152

132:                                              ; preds = %126
  %133 = load ptr, ptr %5, align 8, !tbaa !107
  %134 = load i32, ptr %12, align 4, !tbaa !12
  %135 = sext i32 %134 to i64
  %136 = getelementptr inbounds float, ptr %133, i64 %135
  %137 = load float, ptr %136, align 4, !tbaa !110
  %138 = load ptr, ptr %6, align 8, !tbaa !107
  %139 = load i32, ptr %12, align 4, !tbaa !12
  %140 = sext i32 %139 to i64
  %141 = getelementptr inbounds float, ptr %138, i64 %140
  %142 = load float, ptr %141, align 4, !tbaa !110
  %143 = load ptr, ptr %8, align 8, !tbaa !107
  %144 = load i32, ptr %11, align 4, !tbaa !12
  %145 = sext i32 %144 to i64
  %146 = getelementptr inbounds float, ptr %143, i64 %145
  %147 = load float, ptr %146, align 4, !tbaa !110
  %148 = call float @llvm.fmuladd.f32(float %137, float %142, float %147)
  store float %148, ptr %146, align 4, !tbaa !110
  br label %149

149:                                              ; preds = %132
  %150 = load i32, ptr %12, align 4, !tbaa !12
  %151 = add nsw i32 %150, 1
  store i32 %151, ptr %12, align 4, !tbaa !12
  br label %126, !llvm.loop !129

152:                                              ; preds = %126
  br label %153

153:                                              ; preds = %152
  %154 = load i32, ptr %11, align 4, !tbaa !12
  %155 = add nsw i32 %154, 1
  store i32 %155, ptr %11, align 4, !tbaa !12
  br label %114, !llvm.loop !130

156:                                              ; preds = %114
  br label %157

157:                                              ; preds = %156
  %158 = load i32, ptr %10, align 4, !tbaa !12
  %159 = add nsw i32 %158, 1
  store i32 %159, ptr %10, align 4, !tbaa !12
  br label %99, !llvm.loop !131

160:                                              ; preds = %99
  call void @llvm.lifetime.end.p0(i64 4, ptr %12) #12
  call void @llvm.lifetime.end.p0(i64 4, ptr %11) #12
  call void @llvm.lifetime.end.p0(i64 4, ptr %10) #12
  call void @llvm.lifetime.end.p0(i64 4, ptr %9) #12
  call void @llvm.lifetime.end.p0(i64 8, ptr %8) #12
  call void @llvm.lifetime.end.p0(i64 8, ptr %7) #12
  call void @llvm.lifetime.end.p0(i64 8, ptr %6) #12
  call void @llvm.lifetime.end.p0(i64 8, ptr %5) #12
  ret void
}