; Function Attrs: nofree nounwind uwtable
define void @Emb_ManComputeCovariance(ptr noundef captures(none) %0, i32 noundef %1) local_unnamed_addr #8 {
  %3 = icmp sgt i32 %1, 0
  br i1 %3, label %.lr.ph79, label %._crit_edge80

.lr.ph79:                                         ; preds = %2
  %4 = getelementptr i8, ptr %0, i64 24
  %.val62 = load i32, ptr %4, align 8, !tbaa !53
  %5 = getelementptr i8, ptr %0, i64 56
  %.val63 = load ptr, ptr %5, align 8, !tbaa !79
  %6 = icmp sgt i32 %.val62, 0
  %7 = getelementptr inbounds nuw i8, ptr %0, i64 64
  %8 = load i32, ptr %7, align 8, !tbaa !104
  %9 = sitofp i32 %8 to double
  br i1 %6, label %.lr.ph79.split.us.preheader, label %._crit_edge80

.lr.ph79.split.us.preheader:                      ; preds = %.lr.ph79
  %10 = zext nneg i32 %.val62 to i64
  %wide.trip.count109 = zext nneg i32 %1 to i64
  br label %.lr.ph.us.preheader

.lr.ph.us.preheader:                              ; preds = %._crit_edge76.us, %.lr.ph79.split.us.preheader
  %indvars.iv106 = phi i64 [ 0, %.lr.ph79.split.us.preheader ], [ %indvars.iv.next107, %._crit_edge76.us ]
  %11 = mul nuw nsw i64 %indvars.iv106, %10
  %12 = getelementptr inbounds nuw float, ptr %.val63, i64 %11
  br label %.lr.ph.us

.lr.ph75.us:                                      ; preds = %.lr.ph.us
  %13 = fdiv double %.155.us, %9
  br label %14

14:                                               ; preds = %.lr.ph75.us, %14
  %indvars.iv101 = phi i64 [ 0, %.lr.ph75.us ], [ %indvars.iv.next102, %14 ]
  %15 = getelementptr inbounds nuw float, ptr %12, i64 %indvars.iv101
  %16 = load float, ptr %15, align 4, !tbaa !106
  %17 = fcmp olt float %16, 1.000000e+09
  %18 = fpext float %16 to double
  %19 = fsub double %18, %13
  %20 = fptrunc double %19 to float
  %storemerge.us = select i1 %17, float %20, float 0.000000e+00
  store float %storemerge.us, ptr %15, align 4, !tbaa !106
  %indvars.iv.next102 = add nuw nsw i64 %indvars.iv101, 1
  %exitcond105.not = icmp eq i64 %indvars.iv.next102, %10
  br i1 %exitcond105.not, label %._crit_edge76.us, label %14, !llvm.loop !119

.lr.ph.us:                                        ; preds = %.lr.ph.us.preheader, %.lr.ph.us
  %indvars.iv = phi i64 [ 0, %.lr.ph.us.preheader ], [ %indvars.iv.next, %.lr.ph.us ]
  %.05471.us = phi double [ 0.000000e+00, %.lr.ph.us.preheader ], [ %.155.us, %.lr.ph.us ]
  %21 = getelementptr inbounds nuw float, ptr %12, i64 %indvars.iv
  %22 = load float, ptr %21, align 4, !tbaa !106
  %23 = fcmp olt float %22, 1.000000e+09
  %24 = fpext float %22 to double
  %25 = fadd double %.05471.us, %24
  %.155.us = select i1 %23, double %25, double %.05471.us
  %indvars.iv.next = add nuw nsw i64 %indvars.iv, 1
  %exitcond.not = icmp eq i64 %indvars.iv.next, %10
  br i1 %exitcond.not, label %.lr.ph75.us, label %.lr.ph.us, !llvm.loop !120

._crit_edge76.us:                                 ; preds = %14
  %indvars.iv.next107 = add nuw nsw i64 %indvars.iv106, 1
  %exitcond110.not = icmp eq i64 %indvars.iv.next107, %wide.trip.count109
  br i1 %exitcond110.not, label %._crit_edge80, label %.lr.ph.us.preheader, !llvm.loop !121

._crit_edge80:                                    ; preds = %._crit_edge76.us, %.lr.ph79, %2
  %26 = sext i32 %1 to i64
  %27 = shl nsw i64 %26, 2
  %28 = add nsw i64 %27, 8
  %29 = mul i64 %28, %26
  %30 = tail call noalias ptr @malloc(i64 noundef %29) #29
  %31 = getelementptr inbounds ptr, ptr %30, i64 %26
  store ptr %31, ptr %30, align 8, !tbaa !117
  %32 = icmp sgt i32 %1, 1
  br i1 %32, label %.lr.ph.preheader.i, label %Emb_ManMatrAlloc.exit.thread

Emb_ManMatrAlloc.exit.thread:                     ; preds = %._crit_edge80
  %33 = getelementptr inbounds nuw i8, ptr %0, i64 72
  store ptr %30, ptr %33, align 8, !tbaa !81
  %34 = tail call noalias ptr @malloc(i64 noundef %29) #29
  %35 = getelementptr inbounds ptr, ptr %34, i64 %26
  store ptr %35, ptr %34, align 8, !tbaa !117
  br label %Emb_ManMatrAlloc.exit70

.lr.ph.preheader.i:                               ; preds = %._crit_edge80
  %wide.trip.count.i = zext nneg i32 %1 to i64
  %load_initial136 = load ptr, ptr %30, align 8
  br label %.lr.ph.i

.lr.ph.i:                                         ; preds = %.lr.ph.i, %.lr.ph.preheader.i
  %store_forwarded137 = phi ptr [ %load_initial136, %.lr.ph.preheader.i ], [ %37, %.lr.ph.i ]
  %indvars.iv.i = phi i64 [ 1, %.lr.ph.preheader.i ], [ %indvars.iv.next.i, %.lr.ph.i ]
  %36 = getelementptr ptr, ptr %30, i64 %indvars.iv.i
  %37 = getelementptr inbounds nuw float, ptr %store_forwarded137, i64 %26
  store ptr %37, ptr %36, align 8, !tbaa !117
  %indvars.iv.next.i = add nuw nsw i64 %indvars.iv.i, 1
  %exitcond.not.i = icmp eq i64 %indvars.iv.next.i, %wide.trip.count.i
  br i1 %exitcond.not.i, label %Emb_ManMatrAlloc.exit, label %.lr.ph.i, !llvm.loop !118

Emb_ManMatrAlloc.exit:                            ; preds = %.lr.ph.i
  %38 = getelementptr inbounds nuw i8, ptr %0, i64 72
  store ptr %30, ptr %38, align 8, !tbaa !81
  %39 = tail call noalias ptr @malloc(i64 noundef %29) #29
  %40 = getelementptr inbounds nuw ptr, ptr %39, i64 %26
  store ptr %40, ptr %39, align 8, !tbaa !117
  br label %.lr.ph.i66

.lr.ph.i66:                                       ; preds = %.lr.ph.i66, %Emb_ManMatrAlloc.exit
  %store_forwarded = phi ptr [ %40, %Emb_ManMatrAlloc.exit ], [ %42, %.lr.ph.i66 ]
  %indvars.iv.i67 = phi i64 [ 1, %Emb_ManMatrAlloc.exit ], [ %indvars.iv.next.i68, %.lr.ph.i66 ]
  %41 = getelementptr ptr, ptr %39, i64 %indvars.iv.i67
  %42 = getelementptr inbounds nuw float, ptr %store_forwarded, i64 %26
  store ptr %42, ptr %41, align 8, !tbaa !117
  %indvars.iv.next.i68 = add nuw nsw i64 %indvars.iv.i67, 1
  %exitcond.not.i69 = icmp eq i64 %indvars.iv.next.i68, %wide.trip.count.i
  br i1 %exitcond.not.i69, label %Emb_ManMatrAlloc.exit70, label %.lr.ph.i66, !llvm.loop !118

Emb_ManMatrAlloc.exit70:                          ; preds = %.lr.ph.i66, %Emb_ManMatrAlloc.exit.thread
  %43 = phi ptr [ %34, %Emb_ManMatrAlloc.exit.thread ], [ %39, %.lr.ph.i66 ]
  %44 = getelementptr inbounds nuw i8, ptr %0, i64 80
  store ptr %43, ptr %44, align 8, !tbaa !82
  br i1 %3, label %.lr.ph, label %._crit_edge

.lr.ph:                                           ; preds = %Emb_ManMatrAlloc.exit70
  %45 = getelementptr i8, ptr %0, i64 24
  %.val60 = load i32, ptr %45, align 8, !tbaa !53
  %46 = getelementptr i8, ptr %0, i64 56
  %.val61 = load ptr, ptr %46, align 8, !tbaa !79
  %47 = icmp sgt i32 %.val60, 0
  br i1 %47, label %.lr.ph90.us.us.preheader, label %.lr.ph90.us.preheader

.lr.ph90.us.preheader:                            ; preds = %.lr.ph
  %48 = zext nneg i32 %1 to i64
  %49 = shl nuw nsw i64 %48, 2
  br label %.lr.ph90.us

.lr.ph90.us.us.preheader:                         ; preds = %.lr.ph
  %50 = zext nneg i32 %.val60 to i64
  %wide.trip.count132 = zext nneg i32 %1 to i64
  br label %.lr.ph90.us.us

.lr.ph90.us.us:                                   ; preds = %.lr.ph90.us.us.preheader, %._crit_edge91.split.us.us.us
  %indvars.iv129 = phi i64 [ 0, %.lr.ph90.us.us.preheader ], [ %indvars.iv.next130, %._crit_edge91.split.us.us.us ]
  %51 = mul nuw nsw i64 %indvars.iv129, %50
  %52 = getelementptr inbounds nuw float, ptr %.val61, i64 %51
  %53 = getelementptr inbounds nuw ptr, ptr %30, i64 %indvars.iv129
  %54 = load ptr, ptr %53, align 8, !tbaa !117
  br label %.lr.ph.us92.us.us

.lr.ph.us92.us.us:                                ; preds = %._crit_edge.us93.us.us, %.lr.ph90.us.us
  %indvars.iv124 = phi i64 [ %indvars.iv.next125, %._crit_edge.us93.us.us ], [ 0, %.lr.ph90.us.us ]
  %55 = mul nuw nsw i64 %indvars.iv124, %50
  %56 = getelementptr inbounds nuw float, ptr %.val61, i64 %55
  %57 = getelementptr inbounds nuw float, ptr %54, i64 %indvars.iv124
  store float 0.000000e+00, ptr %57, align 4, !tbaa !106
  br label %58

58:                                               ; preds = %58, %.lr.ph.us92.us.us
  %indvars.iv119 = phi i64 [ %indvars.iv.next120, %58 ], [ 0, %.lr.ph.us92.us.us ]
  %59 = phi float [ %64, %58 ], [ 0.000000e+00, %.lr.ph.us92.us.us ]
  %60 = getelementptr inbounds nuw float, ptr %52, i64 %indvars.iv119
  %61 = load float, ptr %60, align 4, !tbaa !106
  %62 = getelementptr inbounds nuw float, ptr %56, i64 %indvars.iv119
  %63 = load float, ptr %62, align 4, !tbaa !106
  %64 = tail call float @llvm.fmuladd.f32(float %61, float %63, float %59)
  store float %64, ptr %57, align 4, !tbaa !106
  %indvars.iv.next120 = add nuw nsw i64 %indvars.iv119, 1
  %exitcond123.not = icmp eq i64 %indvars.iv.next120, %50
  br i1 %exitcond123.not, label %._crit_edge.us93.us.us, label %58, !llvm.loop !122

._crit_edge.us93.us.us:                           ; preds = %58
  %indvars.iv.next125 = add nuw nsw i64 %indvars.iv124, 1
  %exitcond128.not = icmp eq i64 %indvars.iv.next125, %wide.trip.count132
  br i1 %exitcond128.not, label %._crit_edge91.split.us.us.us, label %.lr.ph.us92.us.us, !llvm.loop !123

._crit_edge91.split.us.us.us:                     ; preds = %._crit_edge.us93.us.us
  %indvars.iv.next130 = add nuw nsw i64 %indvars.iv129, 1
  %exitcond133.not = icmp eq i64 %indvars.iv.next130, %wide.trip.count132
  br i1 %exitcond133.not, label %._crit_edge, label %.lr.ph90.us.us, !llvm.loop !124

.lr.ph90.us:                                      ; preds = %.lr.ph90.us.preheader, %.lr.ph90.us
  %indvars.iv114 = phi i64 [ 0, %.lr.ph90.us.preheader ], [ %indvars.iv.next115, %.lr.ph90.us ]
  %65 = getelementptr inbounds nuw ptr, ptr %30, i64 %indvars.iv114
  %66 = load ptr, ptr %65, align 8, !tbaa !117
  tail call void @llvm.memset.p0.i64(ptr align 4 %66, i8 0, i64 %49, i1 false), !tbaa !106
  %indvars.iv.next115 = add nuw nsw i64 %indvars.iv114, 1
  %exitcond118.not = icmp eq i64 %indvars.iv.next115, %48
  br i1 %exitcond118.not, label %._crit_edge, label %.lr.ph90.us, !llvm.loop !124

._crit_edge:                                      ; preds = %.lr.ph90.us, %._crit_edge91.split.us.us.us, %Emb_ManMatrAlloc.exit70
  ret void
}